target datalayout = "e-m:e-p270:32:32-p271:32:32-p272:64:64-i64:64-i128:128-f80:128-n8:16:32:64-S128"
target triple = "x86_64-pc-linux-gnu"

%struct._MAD = type { i8, i8, i8, i8, i16, i8, i8, i64, i16, i16, i32 }

@hf_opa_NodeDescription = internal global i32 0, align 4
@hf_opa_NodeDescription_NodeString = internal global i32 0, align 4
@ett_nodedescription = internal global i32 0, align 4

; Function Attrs: null_pointer_is_valid sspstrong uwtable
define internal i32 @parse_NodeDescription(ptr noundef %0, ptr noundef %1, ptr noundef %2, ptr noundef %3) #0 {
  %5 = alloca i32, align 4
  %6 = alloca ptr, align 8
  %7 = alloca ptr, align 8
  %8 = alloca ptr, align 8
  %9 = alloca ptr, align 8
  %10 = alloca i32, align 4
  %11 = alloca ptr, align 8
  %12 = alloca ptr, align 8
  %13 = alloca i32, align 4
  store ptr %0, ptr %6, align 8
  store ptr %1, ptr %7, align 8
  store ptr %2, ptr %8, align 8
  store ptr %3, ptr %9, align 8
  call void @llvm.lifetime.start.p0(i64 4, ptr %10) #7
  %14 = load ptr, ptr %8, align 8
  %15 = load i32, ptr %14, align 4
  store i32 %15, ptr %10, align 4
  call void @llvm.lifetime.start.p0(i64 8, ptr %11) #7
  %16 = load ptr, ptr %6, align 8
  store ptr %16, ptr %11, align 8
  call void @llvm.lifetime.start.p0(i64 8, ptr %12) #7
  %17 = load ptr, ptr %6, align 8
  %18 = icmp ne ptr %17, null
  br i1 %18, label %19, label %31

19:                                               ; preds = %4
  %20 = load ptr, ptr %9, align 8
  %21 = getelementptr inbounds nuw %struct._MAD, ptr %20, i32 0, i32 3
  %22 = load i8, ptr %21, align 1
  %23 = zext i8 %22 to i32
  %24 = icmp eq i32 %23, 1
  br i1 %24, label %31, label %25

25:                                               ; preds = %19
  %26 = load ptr, ptr %9, align 8
  %27 = getelementptr inbounds nuw %struct._MAD, ptr %26, i32 0, i32 3
  %28 = load i8, ptr %27, align 1
  %29 = zext i8 %28 to i32
  %30 = icmp eq i32 %29, 18
  br i1 %30, label %31, label %34

31:                                               ; preds = %25, %19, %4
  %32 = load ptr, ptr %8, align 8
  %33 = load i32, ptr %32, align 4
  store i32 %33, ptr %5, align 4
  store i32 1, ptr %13, align 4
  br label %51

34:                                               ; preds = %25
  %35 = load ptr, ptr %11, align 8
  %36 = load i32, ptr @hf_opa_NodeDescription, align 4
  %37 = load ptr, ptr %7, align 8
  %38 = load i32, ptr %10, align 4
  %39 = call ptr @proto_tree_add_item(ptr noundef %35, i32 noundef %36, ptr noundef %37, i32 noundef %38, i32 noundef 64, i32 noundef 0)
  store ptr %39, ptr %12, align 8
  %40 = load ptr, ptr %12, align 8
  %41 = load i32, ptr @ett_nodedescription, align 4
  %42 = call ptr @proto_item_add_subtree(ptr noundef %40, i32 noundef %41)
  store ptr %42, ptr %11, align 8
  %43 = load ptr, ptr %11, align 8
  %44 = load i32, ptr @hf_opa_NodeDescription_NodeString, align 4
  %45 = load ptr, ptr %7, align 8
  %46 = load i32, ptr %10, align 4
  %47 = call ptr @proto_tree_add_item(ptr noundef %43, i32 noundef %44, ptr noundef %45, i32 noundef %46, i32 noundef 64, i32 noundef 0)
  %48 = load i32, ptr %10, align 4
  %49 = add i32 %48, 64
  store i32 %49, ptr %10, align 4
  %50 = load i32, ptr %10, align 4
  store i32 %50, ptr %5, align 4
  store i32 1, ptr %13, align 4
  br label %51

51:                                               ; preds = %34, %31
  call void @llvm.lifetime.end.p0(i64 8, ptr %12) #7
  call void @llvm.lifetime.end.p0(i64 8, ptr %11) #7
  call void @llvm.lifetime.end.p0(i64 4, ptr %10) #7
  %52 = load i32, ptr %5, align 4
  ret i32 %52
}