; Function Attrs: null_pointer_is_valid sspstrong uwtable
define internal fastcc i32 @parse_NodeDescription(ptr noundef %0, ptr noundef %1, i32 %.0.val, ptr noundef readonly captures(none) %2) unnamed_addr #0 {
  %.not = icmp eq ptr %0, null
  br i1 %.not, label %15, label %4

4:                                                ; preds = %3
  %5 = getelementptr inbounds nuw i8, ptr %2, i64 3
  %6 = load i8, ptr %5, align 1
  switch i8 %6, label %7 [
    i8 1, label %15
    i8 18, label %15
  ]

7:                                                ; preds = %4
  %8 = load i32, ptr @hf_opa_NodeDescription, align 4
  %9 = tail call ptr @proto_tree_add_item(ptr noundef nonnull %0, i32 noundef %8, ptr noundef %1, i32 noundef %.0.val, i32 noundef 64, i32 noundef 0)
  %10 = load i32, ptr @ett_nodedescription, align 4
  %11 = tail call ptr @proto_item_add_subtree(ptr noundef %9, i32 noundef %10)
  %12 = load i32, ptr @hf_opa_NodeDescription_NodeString, align 4
  %13 = tail call ptr @proto_tree_add_item(ptr noundef %11, i32 noundef %12, ptr noundef %1, i32 noundef %.0.val, i32 noundef 64, i32 noundef 0)
  %14 = add i32 %.0.val, 64
  br label %15

15:                                               ; preds = %3, %4, %4, %7
  %.0 = phi i32 [ %14, %7 ], [ %.0.val, %4 ], [ %.0.val, %4 ], [ %.0.val, %3 ]
  ret i32 %.0
}